target datalayout = "e-m:e-p270:32:32-p271:32:32-p272:64:64-i64:64-i128:128-f80:128-n8:16:32:64-S128"
target triple = "x86_64-pc-linux-gnu"

%struct.JNINativeInterface_ = type { ptr, ptr, ptr, ptr, ptr, ptr, ptr, ptr, ptr, ptr, ptr, ptr, ptr, ptr, ptr, ptr, ptr, ptr, ptr, ptr, ptr, ptr, ptr, ptr, ptr, ptr, ptr, ptr, ptr, ptr, ptr, ptr, ptr, ptr, ptr, ptr, ptr, ptr, ptr, ptr, ptr, ptr, ptr, ptr, ptr, ptr, ptr, ptr, ptr, ptr, ptr, ptr, ptr, ptr, ptr, ptr, ptr, ptr, ptr, ptr, ptr, ptr, ptr, ptr, ptr, ptr, ptr, ptr, ptr, ptr, ptr, ptr, ptr, ptr, ptr, ptr, ptr, ptr, ptr, ptr, ptr, ptr, ptr, ptr, ptr, ptr, ptr, ptr, ptr, ptr, ptr, ptr, ptr, ptr, ptr, ptr, ptr, ptr, ptr, ptr, ptr, ptr, ptr, ptr, ptr, ptr, ptr, ptr, ptr, ptr, ptr, ptr, ptr, ptr, ptr, ptr, ptr, ptr, ptr, ptr, ptr, ptr, ptr, ptr, ptr, ptr, ptr, ptr, ptr, ptr, ptr, ptr, ptr, ptr, ptr, ptr, ptr, ptr, ptr, ptr, ptr, ptr, ptr, ptr, ptr, ptr, ptr, ptr, ptr, ptr, ptr, ptr, ptr, ptr, ptr, ptr, ptr, ptr, ptr, ptr, ptr, ptr, ptr, ptr, ptr, ptr, ptr, ptr, ptr, ptr, ptr, ptr, ptr, ptr, ptr, ptr, ptr, ptr, ptr, ptr, ptr, ptr, ptr, ptr, ptr, ptr, ptr, ptr, ptr, ptr, ptr, ptr, ptr, ptr, ptr, ptr, ptr, ptr, ptr, ptr, ptr, ptr, ptr, ptr, ptr, ptr, ptr, ptr, ptr, ptr, ptr, ptr, ptr, ptr, ptr, ptr, ptr, ptr, ptr, ptr, ptr, ptr, ptr, ptr, ptr, ptr, ptr, ptr, ptr, ptr, ptr, ptr, ptr, ptr, ptr }

@.str = private unnamed_addr constant [7 x i8] c"raster\00", align 1
@.str.1 = private unnamed_addr constant [32 x i8] c"Ljava/awt/image/WritableRaster;\00", align 1
@g_BImgRasterID = hidden global ptr null, align 8
@.str.2 = private unnamed_addr constant [10 x i8] c"imageType\00", align 1
@.str.3 = private unnamed_addr constant [2 x i8] c"I\00", align 1
@g_BImgTypeID = hidden global ptr null, align 8
@.str.4 = private unnamed_addr constant [11 x i8] c"colorModel\00", align 1
@.str.5 = private unnamed_addr constant [28 x i8] c"Ljava/awt/image/ColorModel;\00", align 1
@g_BImgCMID = hidden global ptr null, align 8
@.str.6 = private unnamed_addr constant [7 x i8] c"getRGB\00", align 1
@.str.7 = private unnamed_addr constant [13 x i8] c"(IIII[III)[I\00", align 1
@g_BImgGetRGBMID = hidden global ptr null, align 8
@.str.8 = private unnamed_addr constant [7 x i8] c"setRGB\00", align 1
@.str.9 = private unnamed_addr constant [12 x i8] c"(IIII[III)V\00", align 1
@g_BImgSetRGBMID = hidden global ptr null, align 8

; Function Attrs: nounwind uwtable
define void @Java_java_awt_image_BufferedImage_initIDs(ptr noundef %0, ptr noundef %1) #0 {
  %3 = alloca ptr, align 8
  %4 = alloca ptr, align 8
  store ptr %0, ptr %3, align 8
  store ptr %1, ptr %4, align 8
  br label %5

5:                                                ; preds = %2
  %6 = load ptr, ptr %3, align 8
  %7 = load ptr, ptr %6, align 8
  %8 = getelementptr inbounds %struct.JNINativeInterface_, ptr %7, i32 0, i32 94
  %9 = load ptr, ptr %8, align 8
  %10 = load ptr, ptr %3, align 8
  %11 = load ptr, ptr %4, align 8
  %12 = call ptr %9(ptr noundef %10, ptr noundef %11, ptr noundef @.str, ptr noundef @.str.1)
  store ptr %12, ptr @g_BImgRasterID, align 8
  %13 = icmp eq ptr %12, null
  br i1 %13, label %14, label %15

14:                                               ; preds = %5
  br label %64

15:                                               ; preds = %5
  br label %16

16:                                               ; preds = %15
  br label %17

17:                                               ; preds = %16
  %18 = load ptr, ptr %3, align 8
  %19 = load ptr, ptr %18, align 8
  %20 = getelementptr inbounds %struct.JNINativeInterface_, ptr %19, i32 0, i32 94
  %21 = load ptr, ptr %20, align 8
  %22 = load ptr, ptr %3, align 8
  %23 = load ptr, ptr %4, align 8
  %24 = call ptr %21(ptr noundef %22, ptr noundef %23, ptr noundef @.str.2, ptr noundef @.str.3)
  store ptr %24, ptr @g_BImgTypeID, align 8
  %25 = icmp eq ptr %24, null
  br i1 %25, label %26, label %27

26:                                               ; preds = %17
  br label %64

27:                                               ; preds = %17
  br label %28

28:                                               ; preds = %27
  br label %29

29:                                               ; preds = %28
  %30 = load ptr, ptr %3, align 8
  %31 = load ptr, ptr %30, align 8
  %32 = getelementptr inbounds %struct.JNINativeInterface_, ptr %31, i32 0, i32 94
  %33 = load ptr, ptr %32, align 8
  %34 = load ptr, ptr %3, align 8
  %35 = load ptr, ptr %4, align 8
  %36 = call ptr %33(ptr noundef %34, ptr noundef %35, ptr noundef @.str.4, ptr noundef @.str.5)
  store ptr %36, ptr @g_BImgCMID, align 8
  %37 = icmp eq ptr %36, null
  br i1 %37, label %38, label %39

38:                                               ; preds = %29
  br label %64

39:                                               ; preds = %29
  br label %40

40:                                               ; preds = %39
  br label %41

41:                                               ; preds = %40
  %42 = load ptr, ptr %3, align 8
  %43 = load ptr, ptr %42, align 8
  %44 = getelementptr inbounds %struct.JNINativeInterface_, ptr %43, i32 0, i32 33
  %45 = load ptr, ptr %44, align 8
  %46 = load ptr, ptr %3, align 8
  %47 = load ptr, ptr %4, align 8
  %48 = call ptr %45(ptr noundef %46, ptr noundef %47, ptr noundef @.str.6, ptr noundef @.str.7)
  store ptr %48, ptr @g_BImgGetRGBMID, align 8
  %49 = icmp eq ptr %48, null
  br i1 %49, label %50, label %51

50:                                               ; preds = %41
  br label %64

51:                                               ; preds = %41
  br label %52

52:                                               ; preds = %51
  br label %53

53:                                               ; preds = %52
  %54 = load ptr, ptr %3, align 8
  %55 = load ptr, ptr %54, align 8
  %56 = getelementptr inbounds %struct.JNINativeInterface_, ptr %55, i32 0, i32 33
  %57 = load ptr, ptr %56, align 8
  %58 = load ptr, ptr %3, align 8
  %59 = load ptr, ptr %4, align 8
  %60 = call ptr %57(ptr noundef %58, ptr noundef %59, ptr noundef @.str.8, ptr noundef @.str.9)
  store ptr %60, ptr @g_BImgSetRGBMID, align 8
  %61 = icmp eq ptr %60, null
  br i1 %61, label %62, label %63

62:                                               ; preds = %53
  br label %64

63:                                               ; preds = %53
  br label %64

64:                                               ; preds = %63, %62, %50, %38, %26, %14
  ret void
}